; Function Attrs: mustprogress nounwind uwtable
define internal void @"_ZNSt17_Function_handlerIFvPKcEZ4mainE4$_32E9_M_invokeERKSt9_Any_dataOS1_"(ptr nocapture nonnull readnone align 8 %0, ptr nocapture noundef nonnull readonly align 8 dereferenceable(8) %1) #10 align 2 {
  %.val = load ptr, ptr %1, align 8
  %3 = tail call ptr @dlopen(ptr noundef %.val, i32 noundef 258) #34
  %4 = icmp eq ptr %3, null
  br i1 %4, label %5, label %"_ZSt10__invoke_rIvRZ4mainE4$_32JPKcEENSt9enable_ifIX16is_invocable_r_vIT_T0_DpT1_EES5_E4typeEOS6_DpOS7_.exit"

5:                                                ; preds = %2
  %6 = load ptr, ptr @stderr, align 8
  %7 = tail call ptr @dlerror() #34
  %8 = tail call i32 (ptr, ptr, ...) @fprintf(ptr noundef %6, ptr noundef nonnull @.str.125, ptr noundef %.val, ptr noundef %7) #36
  tail call void @exit(i32 noundef -1) #30
  unreachable

"_ZSt10__invoke_rIvRZ4mainE4$_32JPKcEENSt9enable_ifIX16is_invocable_r_vIT_T0_DpT1_EES5_E4typeEOS6_DpOS7_.exit": ; preds = %2
  ret void
}